; Function Attrs: mustprogress nounwind uwtable
define hidden noundef zeroext i1 @_ZNK11CompileTask11is_unloadedEv(ptr nocapture noundef nonnull readonly align 8 dereferenceable(176) %0) local_unnamed_addr #0 align 2 {
  %2 = getelementptr inbounds i8, ptr %0, i64 24
  %3 = load ptr, ptr %2, align 8
  %.not = icmp eq ptr %3, null
  br i1 %.not, label %9, label %4

4:                                                ; preds = %1
  %5 = tail call noundef zeroext i1 @_ZN10JNIHandles21is_weak_global_handleEP8_jobject(ptr noundef nonnull %3) #9
  br i1 %5, label %6, label %9

6:                                                ; preds = %4
  %7 = load ptr, ptr %2, align 8
  %8 = tail call noundef zeroext i1 @_ZN10JNIHandles22is_weak_global_clearedEP8_jobject(ptr noundef %7) #9
  br label %9

9:                                                ; preds = %6, %4, %1
  %10 = phi i1 [ false, %4 ], [ false, %1 ], [ %8, %6 ]
  ret i1 %10
}